#include <math.h>
#include <stdio.h>
#include <stdlib.h>
#include <string.h>

int main(){
	int num[310],i,j,s,b,n=0,sec=0;
    char c;

	for(i=0;;i++)
	{
		scanf("%d%c",&num[i],&c);
		n=n+1;
		if(c=='\n')
			break;
	}

     
	if(n==1)
	{
		printf("No");
	}
	else 
	{
		for(j=0;j<n;j++)
		{	for(i=0;i<n-j-1;i++)
				if(num[i]>num[i+1])
				{
					b=num[i];num[i]=num[i+1];num[i+1]=b;
				}
		}
		if(num[0]==num[n-1])
		{
			printf("No");
		}
		else
		{
			for(i=0;i<n;i++){
				if(num[i]>sec&&num[i]<num[n-1]){
					sec=num[i];
				}
			}
		
	
		printf("%d",sec);
		}
	}
	 
	return 0;
}
