; ModuleID = '22/846.c'
source_filename = "22/846.c"
target datalayout = "e-m:e-p270:32:32-p271:32:32-p272:64:64-i64:64-f80:128-n8:16:32:64-S128"
target triple = "x86_64-pc-linux-gnu"

@.str = private unnamed_addr constant [5 x i8] c"%d%c\00", align 1
@.str.1 = private unnamed_addr constant [3 x i8] c"No\00", align 1
@.str.2 = private unnamed_addr constant [3 x i8] c"%d\00", align 1

; Function Attrs: noinline nounwind uwtable
define dso_local i32 @main() #0 {
  %1 = alloca i32, align 4
  %2 = alloca [310 x i32], align 16
  %3 = alloca i32, align 4
  %4 = alloca i32, align 4
  %5 = alloca i32, align 4
  %6 = alloca i32, align 4
  %7 = alloca i32, align 4
  %8 = alloca i32, align 4
  %9 = alloca i8, align 1
  store i32 0, i32* %1, align 4
  store i32 0, i32* %7, align 4
  store i32 0, i32* %8, align 4
  store i32 0, i32* %3, align 4
  br label %10

10:                                               ; preds = %22, %0
  %11 = load i32, i32* %3, align 4
  %12 = sext i32 %11 to i64
  %13 = getelementptr inbounds [310 x i32], [310 x i32]* %2, i64 0, i64 %12
  %14 = call i32 (i8*, ...) @__isoc99_scanf(i8* getelementptr inbounds ([5 x i8], [5 x i8]* @.str, i64 0, i64 0), i32* %13, i8* %9)
  %15 = load i32, i32* %7, align 4
  %16 = add nsw i32 %15, 1
  store i32 %16, i32* %7, align 4
  %17 = load i8, i8* %9, align 1
  %18 = sext i8 %17 to i32
  %19 = icmp eq i32 %18, 10
  br i1 %19, label %20, label %21

20:                                               ; preds = %10
  br label %25

21:                                               ; preds = %10
  br label %22

22:                                               ; preds = %21
  %23 = load i32, i32* %3, align 4
  %24 = add nsw i32 %23, 1
  store i32 %24, i32* %3, align 4
  br label %10

25:                                               ; preds = %20
  %26 = load i32, i32* %7, align 4
  %27 = icmp eq i32 %26, 1
  br i1 %27, label %28, label %30

28:                                               ; preds = %25
  %29 = call i32 (i8*, ...) @printf(i8* getelementptr inbounds ([3 x i8], [3 x i8]* @.str.1, i64 0, i64 0))
  br label %127

30:                                               ; preds = %25
  store i32 0, i32* %4, align 4
  br label %31

31:                                               ; preds = %77, %30
  %32 = load i32, i32* %4, align 4
  %33 = load i32, i32* %7, align 4
  %34 = icmp slt i32 %32, %33
  br i1 %34, label %35, label %80

35:                                               ; preds = %31
  store i32 0, i32* %3, align 4
  br label %36

36:                                               ; preds = %73, %35
  %37 = load i32, i32* %3, align 4
  %38 = load i32, i32* %7, align 4
  %39 = load i32, i32* %4, align 4
  %40 = sub nsw i32 %38, %39
  %41 = sub nsw i32 %40, 1
  %42 = icmp slt i32 %37, %41
  br i1 %42, label %43, label %76

43:                                               ; preds = %36
  %44 = load i32, i32* %3, align 4
  %45 = sext i32 %44 to i64
  %46 = getelementptr inbounds [310 x i32], [310 x i32]* %2, i64 0, i64 %45
  %47 = load i32, i32* %46, align 4
  %48 = load i32, i32* %3, align 4
  %49 = add nsw i32 %48, 1
  %50 = sext i32 %49 to i64
  %51 = getelementptr inbounds [310 x i32], [310 x i32]* %2, i64 0, i64 %50
  %52 = load i32, i32* %51, align 4
  %53 = icmp sgt i32 %47, %52
  br i1 %53, label %54, label %72

54:                                               ; preds = %43
  %55 = load i32, i32* %3, align 4
  %56 = sext i32 %55 to i64
  %57 = getelementptr inbounds [310 x i32], [310 x i32]* %2, i64 0, i64 %56
  %58 = load i32, i32* %57, align 4
  store i32 %58, i32* %6, align 4
  %59 = load i32, i32* %3, align 4
  %60 = add nsw i32 %59, 1
  %61 = sext i32 %60 to i64
  %62 = getelementptr inbounds [310 x i32], [310 x i32]* %2, i64 0, i64 %61
  %63 = load i32, i32* %62, align 4
  %64 = load i32, i32* %3, align 4
  %65 = sext i32 %64 to i64
  %66 = getelementptr inbounds [310 x i32], [310 x i32]* %2, i64 0, i64 %65
  store i32 %63, i32* %66, align 4
  %67 = load i32, i32* %6, align 4
  %68 = load i32, i32* %3, align 4
  %69 = add nsw i32 %68, 1
  %70 = sext i32 %69 to i64
  %71 = getelementptr inbounds [310 x i32], [310 x i32]* %2, i64 0, i64 %70
  store i32 %67, i32* %71, align 4
  br label %72

72:                                               ; preds = %54, %43
  br label %73

73:                                               ; preds = %72
  %74 = load i32, i32* %3, align 4
  %75 = add nsw i32 %74, 1
  store i32 %75, i32* %3, align 4
  br label %36

76:                                               ; preds = %36
  br label %77

77:                                               ; preds = %76
  %78 = load i32, i32* %4, align 4
  %79 = add nsw i32 %78, 1
  store i32 %79, i32* %4, align 4
  br label %31

80:                                               ; preds = %31
  %81 = getelementptr inbounds [310 x i32], [310 x i32]* %2, i64 0, i64 0
  %82 = load i32, i32* %81, align 16
  %83 = load i32, i32* %7, align 4
  %84 = sub nsw i32 %83, 1
  %85 = sext i32 %84 to i64
  %86 = getelementptr inbounds [310 x i32], [310 x i32]* %2, i64 0, i64 %85
  %87 = load i32, i32* %86, align 4
  %88 = icmp eq i32 %82, %87
  br i1 %88, label %89, label %91

89:                                               ; preds = %80
  %90 = call i32 (i8*, ...) @printf(i8* getelementptr inbounds ([3 x i8], [3 x i8]* @.str.1, i64 0, i64 0))
  br label %126

91:                                               ; preds = %80
  store i32 0, i32* %3, align 4
  br label %92

92:                                               ; preds = %120, %91
  %93 = load i32, i32* %3, align 4
  %94 = load i32, i32* %7, align 4
  %95 = icmp slt i32 %93, %94
  br i1 %95, label %96, label %123

96:                                               ; preds = %92
  %97 = load i32, i32* %3, align 4
  %98 = sext i32 %97 to i64
  %99 = getelementptr inbounds [310 x i32], [310 x i32]* %2, i64 0, i64 %98
  %100 = load i32, i32* %99, align 4
  %101 = load i32, i32* %8, align 4
  %102 = icmp sgt i32 %100, %101
  br i1 %102, label %103, label %119

103:                                              ; preds = %96
  %104 = load i32, i32* %3, align 4
  %105 = sext i32 %104 to i64
  %106 = getelementptr inbounds [310 x i32], [310 x i32]* %2, i64 0, i64 %105
  %107 = load i32, i32* %106, align 4
  %108 = load i32, i32* %7, align 4
  %109 = sub nsw i32 %108, 1
  %110 = sext i32 %109 to i64
  %111 = getelementptr inbounds [310 x i32], [310 x i32]* %2, i64 0, i64 %110
  %112 = load i32, i32* %111, align 4
  %113 = icmp slt i32 %107, %112
  br i1 %113, label %114, label %119

114:                                              ; preds = %103
  %115 = load i32, i32* %3, align 4
  %116 = sext i32 %115 to i64
  %117 = getelementptr inbounds [310 x i32], [310 x i32]* %2, i64 0, i64 %116
  %118 = load i32, i32* %117, align 4
  store i32 %118, i32* %8, align 4
  br label %119

119:                                              ; preds = %114, %103, %96
  br label %120

120:                                              ; preds = %119
  %121 = load i32, i32* %3, align 4
  %122 = add nsw i32 %121, 1
  store i32 %122, i32* %3, align 4
  br label %92

123:                                              ; preds = %92
  %124 = load i32, i32* %8, align 4
  %125 = call i32 (i8*, ...) @printf(i8* getelementptr inbounds ([3 x i8], [3 x i8]* @.str.2, i64 0, i64 0), i32 %124)
  br label %126

126:                                              ; preds = %123, %89
  br label %127

127:                                              ; preds = %126, %28
  ret i32 0
}

declare dso_local i32 @__isoc99_scanf(i8*, ...) #1

declare dso_local i32 @printf(i8*, ...) #1


!llvm.module.flags = !{!0}
!llvm.ident = !{!1}

!0 = !{i32 1, !"wchar_size", i32 4}
!1 = !{!"clang version 10.0.0-4ubuntu1 "}
